; Function Attrs: mustprogress uwtable
define dso_local void @_ZN15StatementReturnC2ERKS_(ptr noundef nonnull align 8 dereferenceable(40) %0, ptr nocapture noundef nonnull readonly align 8 dereferenceable(40) %1) unnamed_addr #3 align 2 {
  %3 = getelementptr inbounds i8, ptr %1, i64 8
  %4 = load i32, ptr %3, align 8
  %5 = getelementptr inbounds i8, ptr %1, i64 24
  %6 = load ptr, ptr %5, align 8
  tail call void @_ZN9StatementC2E14eStatementTypeP5Block(ptr noundef nonnull align 8 dereferenceable(32) %0, i32 noundef %4, ptr noundef %6)
  store ptr getelementptr inbounds ({ [12 x ptr] }, ptr @_ZTV15StatementReturn, i64 0, i32 0, i64 2), ptr %0, align 8
  %7 = getelementptr inbounds i8, ptr %0, i64 32
  %8 = getelementptr inbounds i8, ptr %1, i64 32
  %9 = load ptr, ptr %8, align 8
  store ptr %9, ptr %7, align 8
  ret void
}